; Function Attrs: mustprogress nounwind uwtable
define hidden void @_ZN6hermes2vm7HadesGC30addSegmentExtentToCrashManagerERKNS1_11HeapSegmentERKNSt7__cxx1112basic_stringIcSt11char_traitsIcESaIcEEE(ptr noundef nonnull align 8 dereferenceable(8152) %this, ptr nocapture noundef nonnull readonly align 8 dereferenceable(32) %seg, ptr noundef nonnull align 8 dereferenceable(32) %extraName) local_unnamed_addr #4 align 2 {
entry:
  %segmentName = alloca %"class.std::__cxx11::basic_string", align 8
  %ref.tmp = alloca %"class.std::__cxx11::basic_string", align 8
  %segmentAddressBuffer = alloca [18 x i8], align 16
  %crashMgr_ = getelementptr inbounds i8, ptr %this, i64 48
  %0 = load ptr, ptr %crashMgr_, align 8
  %cmp.i.not = icmp eq ptr %0, null
  br i1 %cmp.i.not, label %return, label %if.end

if.end:                                           ; preds = %entry
  %name_ = getelementptr inbounds i8, ptr %this, i64 328
  call void @_ZNSt7__cxx1112basic_stringIcSt11char_traitsIcESaIcEEC1ERKS4_(ptr noundef nonnull align 8 dereferenceable(32) %ref.tmp, ptr noundef nonnull align 8 dereferenceable(32) %name_) #34
  %call.i = call noundef nonnull align 8 dereferenceable(32) ptr @_ZNSt7__cxx1112basic_stringIcSt11char_traitsIcESaIcEE6appendEPKc(ptr noundef nonnull align 8 dereferenceable(32) %ref.tmp, ptr noundef nonnull @.str.17) #34
  %call.i1 = call noundef nonnull align 8 dereferenceable(32) ptr @_ZNSt7__cxx1112basic_stringIcSt11char_traitsIcESaIcEE6appendERKS4_(ptr noundef nonnull align 8 dereferenceable(32) %ref.tmp, ptr noundef nonnull align 8 dereferenceable(32) %extraName) #34, !noalias !111
  call void @_ZNSt7__cxx1112basic_stringIcSt11char_traitsIcESaIcEEC1EOS4_(ptr noundef nonnull align 8 dereferenceable(32) %segmentName, ptr noundef nonnull align 8 dereferenceable(32) %call.i1) #34
  call void @_ZNSt7__cxx1112basic_stringIcSt11char_traitsIcESaIcEED1Ev(ptr noundef nonnull align 8 dereferenceable(32) %ref.tmp) #34
  %1 = load ptr, ptr %seg, align 8
  %call3 = call i32 (ptr, i64, ptr, ...) @snprintf(ptr noundef nonnull dereferenceable(1) %segmentAddressBuffer, i64 noundef 18, ptr noundef nonnull @.str.18, ptr noundef %1) #34
  %2 = load ptr, ptr %crashMgr_, align 8
  %call6 = call noundef ptr @_ZNKSt7__cxx1112basic_stringIcSt11char_traitsIcESaIcEE5c_strEv(ptr noundef nonnull align 8 dereferenceable(32) %segmentName) #34
  %vtable = load ptr, ptr %2, align 8
  %vfn = getelementptr inbounds i8, ptr %vtable, i64 32
  %3 = load ptr, ptr %vfn, align 8
  call void %3(ptr noundef nonnull align 8 dereferenceable(8) %2, ptr noundef %call6, ptr noundef nonnull %segmentAddressBuffer) #34
  call void @_ZNSt7__cxx1112basic_stringIcSt11char_traitsIcESaIcEED1Ev(ptr noundef nonnull align 8 dereferenceable(32) %segmentName) #34
  br label %return

return:                                           ; preds = %entry, %if.end
  ret void
}